target datalayout = "e-m:e-p270:32:32-p271:32:32-p272:64:64-i64:64-i128:128-f80:128-n8:16:32:64-S128"
target triple = "x86_64-pc-linux-gnu"

%"class.cv::dnn::dnn4_v20241223::ONNXLayerHandler" = type { %"class.cv::dnn::dnn4_v20241223::detail::LayerHandler", ptr }
%"class.cv::dnn::dnn4_v20241223::detail::LayerHandler" = type { %"class.std::unordered_map" }
%"class.std::unordered_map" = type { %"class.std::_Hashtable" }
%"class.std::_Hashtable" = type { ptr, i64, %"struct.std::__detail::_Hash_node_base", i64, %"struct.std::__detail::_Prime_rehash_policy", ptr }
%"struct.std::__detail::_Hash_node_base" = type { ptr }
%"struct.std::__detail::_Prime_rehash_policy" = type { float, i64 }

; Function Attrs: mustprogress nounwind uwtable
define linkonce_odr hidden void @_ZNSt15__new_allocatorINSt8__detail10_Hash_nodeISt4pairIKNSt7__cxx1112basic_stringIcSt11char_traitsIcESaIcEEESt13unordered_setIS8_St4hashIS8_ESt8equal_toIS8_ESaIS8_EEELb1EEEEC2Ev(ptr noundef nonnull align 1 dereferenceable(1) %0) unnamed_addr #4 comdat align 2 {
  %2 = alloca ptr, align 8
  store ptr %0, ptr %2, align 8, !tbaa !596
  ret void
}

; Function Attrs: mustprogress nounwind uwtable
define linkonce_odr hidden void @_ZNSaINSt8__detail10_Hash_nodeISt4pairIKNSt7__cxx1112basic_stringIcSt11char_traitsIcESaIcEEESt13unordered_setIS7_St4hashIS7_ESt8equal_toIS7_ESaIS7_EEELb1EEEEC2Ev(ptr noundef nonnull align 1 dereferenceable(1) %0) unnamed_addr #4 comdat align 2 {
  %2 = alloca ptr, align 8
  store ptr %0, ptr %2, align 8, !tbaa !594
  %3 = load ptr, ptr %2, align 8
  call void @_ZNSt15__new_allocatorINSt8__detail10_Hash_nodeISt4pairIKNSt7__cxx1112basic_stringIcSt11char_traitsIcESaIcEEESt13unordered_setIS8_St4hashIS8_ESt8equal_toIS8_ESaIS8_EEELb1EEEEC2Ev(ptr noundef nonnull align 1 dereferenceable(1) %3) #3
  ret void
}

; Function Attrs: mustprogress nounwind uwtable
define linkonce_odr hidden void @_ZNSt8__detail21_Hashtable_ebo_helperILi1ESt4hashINSt7__cxx1112basic_stringIcSt11char_traitsIcESaIcEEEELb1EEC2Ev(ptr noundef nonnull align 1 dereferenceable(1) %0) unnamed_addr #4 comdat align 2 {
  %2 = alloca ptr, align 8
  store ptr %0, ptr %2, align 8, !tbaa !590
  ret void
}

; Function Attrs: mustprogress nounwind uwtable
define linkonce_odr hidden void @_ZNSt8__detail21_Hashtable_ebo_helperILi0ESaINS_10_Hash_nodeISt4pairIKNSt7__cxx1112basic_stringIcSt11char_traitsIcESaIcEEESt13unordered_setIS8_St4hashIS8_ESt8equal_toIS8_ESaIS8_EEELb1EEEELb1EEC2Ev(ptr noundef nonnull align 1 dereferenceable(1) %0) unnamed_addr #4 comdat align 2 {
  %2 = alloca ptr, align 8
  store ptr %0, ptr %2, align 8, !tbaa !592
  %3 = load ptr, ptr %2, align 8
  call void @_ZNSaINSt8__detail10_Hash_nodeISt4pairIKNSt7__cxx1112basic_stringIcSt11char_traitsIcESaIcEEESt13unordered_setIS7_St4hashIS7_ESt8equal_toIS7_ESaIS7_EEELb1EEEEC2Ev(ptr noundef nonnull align 1 dereferenceable(1) %3) #3
  ret void
}

; Function Attrs: mustprogress nounwind uwtable
define linkonce_odr hidden void @_ZNSt8__detail21_Hashtable_ebo_helperILi0ESt8equal_toINSt7__cxx1112basic_stringIcSt11char_traitsIcESaIcEEEELb1EEC2Ev(ptr noundef nonnull align 1 dereferenceable(1) %0) unnamed_addr #4 comdat align 2 {
  %2 = alloca ptr, align 8
  store ptr %0, ptr %2, align 8, !tbaa !588
  ret void
}

; Function Attrs: mustprogress nounwind uwtable
define linkonce_odr hidden void @_ZNSt8__detail15_Hash_code_baseINSt7__cxx1112basic_stringIcSt11char_traitsIcESaIcEEESt4pairIKS6_St13unordered_setIS6_St4hashIS6_ESt8equal_toIS6_ESaIS6_EEENS_10_Select1stESB_NS_18_Mod_range_hashingENS_20_Default_ranged_hashELb1EEC2Ev(ptr noundef nonnull align 1 dereferenceable(1) %0) unnamed_addr #4 comdat align 2 {
  %2 = alloca ptr, align 8
  store ptr %0, ptr %2, align 8, !tbaa !586
  %3 = load ptr, ptr %2, align 8
  call void @_ZNSt8__detail21_Hashtable_ebo_helperILi1ESt4hashINSt7__cxx1112basic_stringIcSt11char_traitsIcESaIcEEEELb1EEC2Ev(ptr noundef nonnull align 1 dereferenceable(1) %3) #3
  ret void
}

; Function Attrs: mustprogress nounwind uwtable
define linkonce_odr hidden void @_ZNSt8__detail20_Prime_rehash_policyC2Ef(ptr noundef nonnull align 8 dereferenceable(16) %0, float noundef %1) unnamed_addr #4 comdat align 2 {
  %3 = alloca ptr, align 8
  %4 = alloca float, align 4
  store ptr %0, ptr %3, align 8, !tbaa !582
  store float %1, ptr %4, align 4, !tbaa !242
  %5 = load ptr, ptr %3, align 8
  %6 = getelementptr inbounds nuw %"struct.std::__detail::_Prime_rehash_policy", ptr %5, i32 0, i32 0
  %7 = load float, ptr %4, align 4, !tbaa !242
  store float %7, ptr %6, align 8, !tbaa !584
  %8 = getelementptr inbounds nuw %"struct.std::__detail::_Prime_rehash_policy", ptr %5, i32 0, i32 1
  store i64 0, ptr %8, align 8, !tbaa !585
  ret void
}

; Function Attrs: mustprogress nounwind uwtable
define linkonce_odr hidden void @_ZNSt8__detail15_Hash_node_baseC2Ev(ptr noundef nonnull align 8 dereferenceable(8) %0) unnamed_addr #4 comdat align 2 {
  %2 = alloca ptr, align 8
  store ptr %0, ptr %2, align 8, !tbaa !580
  %3 = load ptr, ptr %2, align 8
  %4 = getelementptr inbounds nuw %"struct.std::__detail::_Hash_node_base", ptr %3, i32 0, i32 0
  store ptr null, ptr %4, align 8, !tbaa !581
  ret void
}

; Function Attrs: mustprogress nounwind uwtable
define linkonce_odr hidden void @_ZNSt8__detail16_Hashtable_allocISaINS_10_Hash_nodeISt4pairIKNSt7__cxx1112basic_stringIcSt11char_traitsIcESaIcEEESt13unordered_setIS8_St4hashIS8_ESt8equal_toIS8_ESaIS8_EEELb1EEEEEC2Ev(ptr noundef nonnull align 1 dereferenceable(1) %0) unnamed_addr #4 comdat align 2 {
  %2 = alloca ptr, align 8
  store ptr %0, ptr %2, align 8, !tbaa !578
  %3 = load ptr, ptr %2, align 8
  call void @_ZNSt8__detail21_Hashtable_ebo_helperILi0ESaINS_10_Hash_nodeISt4pairIKNSt7__cxx1112basic_stringIcSt11char_traitsIcESaIcEEESt13unordered_setIS8_St4hashIS8_ESt8equal_toIS8_ESaIS8_EEELb1EEEELb1EEC2Ev(ptr noundef nonnull align 1 dereferenceable(1) %3) #3
  ret void
}

; Function Attrs: mustprogress nounwind uwtable
define linkonce_odr hidden void @_ZNSt8__detail15_Hashtable_baseINSt7__cxx1112basic_stringIcSt11char_traitsIcESaIcEEESt4pairIKS6_St13unordered_setIS6_St4hashIS6_ESt8equal_toIS6_ESaIS6_EEENS_10_Select1stESD_SB_NS_18_Mod_range_hashingENS_20_Default_ranged_hashENS_17_Hashtable_traitsILb1ELb0ELb1EEEEC2Ev(ptr noundef nonnull align 1 dereferenceable(1) %0) unnamed_addr #4 comdat align 2 {
  %2 = alloca ptr, align 8
  store ptr %0, ptr %2, align 8, !tbaa !576
  %3 = load ptr, ptr %2, align 8
  call void @_ZNSt8__detail15_Hash_code_baseINSt7__cxx1112basic_stringIcSt11char_traitsIcESaIcEEESt4pairIKS6_St13unordered_setIS6_St4hashIS6_ESt8equal_toIS6_ESaIS6_EEENS_10_Select1stESB_NS_18_Mod_range_hashingENS_20_Default_ranged_hashELb1EEC2Ev(ptr noundef nonnull align 1 dereferenceable(1) %3) #3
  call void @_ZNSt8__detail21_Hashtable_ebo_helperILi0ESt8equal_toINSt7__cxx1112basic_stringIcSt11char_traitsIcESaIcEEEELb1EEC2Ev(ptr noundef nonnull align 1 dereferenceable(1) %3) #3
  ret void
}

; Function Attrs: mustprogress nounwind uwtable
define linkonce_odr hidden void @_ZNSt10_HashtableINSt7__cxx1112basic_stringIcSt11char_traitsIcESaIcEEESt4pairIKS5_St13unordered_setIS5_St4hashIS5_ESt8equal_toIS5_ESaIS5_EEESaISF_ENSt8__detail10_Select1stESC_SA_NSH_18_Mod_range_hashingENSH_20_Default_ranged_hashENSH_20_Prime_rehash_policyENSH_17_Hashtable_traitsILb1ELb0ELb1EEEEC2Ev(ptr noundef nonnull align 8 dereferenceable(56) %0) unnamed_addr #4 comdat align 2 {
  %2 = alloca ptr, align 8
  store ptr %0, ptr %2, align 8, !tbaa !570
  %3 = load ptr, ptr %2, align 8
  call void @_ZNSt8__detail15_Hashtable_baseINSt7__cxx1112basic_stringIcSt11char_traitsIcESaIcEEESt4pairIKS6_St13unordered_setIS6_St4hashIS6_ESt8equal_toIS6_ESaIS6_EEENS_10_Select1stESD_SB_NS_18_Mod_range_hashingENS_20_Default_ranged_hashENS_17_Hashtable_traitsILb1ELb0ELb1EEEEC2Ev(ptr noundef nonnull align 1 dereferenceable(1) %3) #3
  call void @_ZNSt8__detail16_Hashtable_allocISaINS_10_Hash_nodeISt4pairIKNSt7__cxx1112basic_stringIcSt11char_traitsIcESaIcEEESt13unordered_setIS8_St4hashIS8_ESt8equal_toIS8_ESaIS8_EEELb1EEEEEC2Ev(ptr noundef nonnull align 1 dereferenceable(1) %3) #3
  %4 = getelementptr inbounds nuw %"class.std::_Hashtable", ptr %3, i32 0, i32 0
  %5 = getelementptr inbounds nuw %"class.std::_Hashtable", ptr %3, i32 0, i32 5
  store ptr %5, ptr %4, align 8, !tbaa !572
  %6 = getelementptr inbounds nuw %"class.std::_Hashtable", ptr %3, i32 0, i32 1
  store i64 1, ptr %6, align 8, !tbaa !573
  %7 = getelementptr inbounds nuw %"class.std::_Hashtable", ptr %3, i32 0, i32 2
  call void @_ZNSt8__detail15_Hash_node_baseC2Ev(ptr noundef nonnull align 8 dereferenceable(8) %7) #3
  %8 = getelementptr inbounds nuw %"class.std::_Hashtable", ptr %3, i32 0, i32 3
  store i64 0, ptr %8, align 8, !tbaa !574
  %9 = getelementptr inbounds nuw %"class.std::_Hashtable", ptr %3, i32 0, i32 4
  call void @_ZNSt8__detail20_Prime_rehash_policyC2Ef(ptr noundef nonnull align 8 dereferenceable(16) %9, float noundef 1.000000e+00) #3
  %10 = getelementptr inbounds nuw %"class.std::_Hashtable", ptr %3, i32 0, i32 5
  store ptr null, ptr %10, align 8, !tbaa !575
  ret void
}

; Function Attrs: mustprogress nounwind uwtable
define linkonce_odr hidden void @_ZNSt13unordered_mapINSt7__cxx1112basic_stringIcSt11char_traitsIcESaIcEEESt13unordered_setIS5_St4hashIS5_ESt8equal_toIS5_ESaIS5_EES8_SA_SaISt4pairIKS5_SC_EEEC2Ev(ptr noundef nonnull align 8 dereferenceable(56) %0) unnamed_addr #4 comdat align 2 {
  %2 = alloca ptr, align 8
  store ptr %0, ptr %2, align 8, !tbaa !568
  %3 = load ptr, ptr %2, align 8
  %4 = getelementptr inbounds nuw %"class.std::unordered_map", ptr %3, i32 0, i32 0
  call void @_ZNSt10_HashtableINSt7__cxx1112basic_stringIcSt11char_traitsIcESaIcEEESt4pairIKS5_St13unordered_setIS5_St4hashIS5_ESt8equal_toIS5_ESaIS5_EEESaISF_ENSt8__detail10_Select1stESC_SA_NSH_18_Mod_range_hashingENSH_20_Default_ranged_hashENSH_20_Prime_rehash_policyENSH_17_Hashtable_traitsILb1ELb0ELb1EEEEC2Ev(ptr noundef nonnull align 8 dereferenceable(56) %4) #3
  ret void
}

; Function Attrs: inlinehint mustprogress nounwind uwtable
define linkonce_odr hidden void @_ZN2cv3dnn14dnn4_v202412236detail12LayerHandlerC2Ev(ptr noundef nonnull align 8 dereferenceable(56) %0) unnamed_addr #5 comdat align 2 {
  %2 = alloca ptr, align 8
  store ptr %0, ptr %2, align 8, !tbaa !22
  %3 = load ptr, ptr %2, align 8
  %4 = getelementptr inbounds nuw %"class.cv::dnn::dnn4_v20241223::detail::LayerHandler", ptr %3, i32 0, i32 0
  call void @_ZNSt13unordered_mapINSt7__cxx1112basic_stringIcSt11char_traitsIcESaIcEEESt13unordered_setIS5_St4hashIS5_ESt8equal_toIS5_ESaIS5_EES8_SA_SaISt4pairIKS5_SC_EEEC2Ev(ptr noundef nonnull align 8 dereferenceable(56) %4) #3
  ret void
}

; Function Attrs: mustprogress nounwind uwtable
define hidden void @_ZN2cv3dnn14dnn4_v2024122316ONNXLayerHandlerC2EPNS1_12ONNXImporterE(ptr noundef nonnull align 8 dereferenceable(64) %0, ptr noundef %1) unnamed_addr #4 align 2 {
  %3 = alloca ptr, align 8
  %4 = alloca ptr, align 8
  store ptr %0, ptr %3, align 8, !tbaa !3
  store ptr %1, ptr %4, align 8, !tbaa !8
  %5 = load ptr, ptr %3, align 8
  call void @_ZN2cv3dnn14dnn4_v202412236detail12LayerHandlerC2Ev(ptr noundef nonnull align 8 dereferenceable(56) %5) #3
  %6 = getelementptr inbounds nuw %"class.cv::dnn::dnn4_v20241223::ONNXLayerHandler", ptr %5, i32 0, i32 1
  %7 = load ptr, ptr %4, align 8, !tbaa !8
  store ptr %7, ptr %6, align 8, !tbaa !10
  ret void
}